target datalayout = "e-m:e-p270:32:32-p271:32:32-p272:64:64-i64:64-i128:128-f80:128-n8:16:32:64-S128"
target triple = "x86_64-pc-linux-gnu"

%struct.SchedulerNode = type { i32, i32, i32 }
%struct.AVRational = type { i32, i32 }
%struct.AVChannelLayout = type { i32, i32, %union.anon, ptr }
%union.anon = type { i64 }
%struct.FilterGraphPriv = type { %struct.FilterGraph, [32 x i8], i32, i32, i32, i32, i32, ptr, i32, ptr, ptr, ptr, i32, %struct.AVBPrint }
%struct.FilterGraph = type { ptr, i32, ptr, i32, ptr, i32 }
%struct.AVBPrint = type { ptr, i32, i32, i32, [1 x i8], [1000 x i8] }
%struct.InputFilterPriv = type { %struct.InputFilter, %struct.InputFilterOptions, i32, ptr, ptr, ptr, i32, i32, i32, i32, i32, i64, i32, i32, i32, %struct.AVRational, i32, i32, i32, %struct.AVChannelLayout, %struct.AVRational, ptr, i32, ptr, ptr, i32, i32, [9 x i32], i32, %struct.AVDownmixInfo, %struct.anon }
%struct.InputFilter = type { ptr, ptr }
%struct.InputFilterOptions = type { i64, i64, ptr, %struct.AVRational, i32, i32, i32, i32, i32, i32, i32, ptr }
%struct.AVDownmixInfo = type { i32, double, double, double, double, double }
%struct.anon = type { ptr, i64, i64, i32 }
%struct.InputStream = type { ptr, ptr, i32, ptr, i32, ptr, ptr, ptr, %struct.AVRational, i32, i32, ptr, i32 }
%struct.AVCodecParameters = type { i32, i32, i32, ptr, i32, ptr, i32, i32, i64, i32, i32, i32, i32, i32, i32, %struct.AVRational, %struct.AVRational, i32, i32, i32, i32, i32, i32, i32, %struct.AVChannelLayout, i32, i32, i32, i32, i32, i32 }
%struct.AVStream = type { ptr, i32, i32, ptr, ptr, %struct.AVRational, i64, i64, i64, i32, i32, %struct.AVRational, ptr, %struct.AVRational, %struct.AVPacket, i32, %struct.AVRational, i32 }
%struct.AVPacket = type { ptr, i64, i64, ptr, i32, i32, i32, ptr, i32, i64, i64, ptr, ptr, %struct.AVRational }

@.str = private unnamed_addr constant [30 x i8] c"Assertion %s failed at %s:%d\0A\00", align 1
@.str.2 = private unnamed_addr constant [24 x i8] c"fftools/ffmpeg_filter.c\00", align 1
@.str.28 = private unnamed_addr constant [12 x i8] c"!ifp->bound\00", align 1
@.str.29 = private unnamed_addr constant [52 x i8] c"Tried to connect %s stream to %s filtergraph input\0A\00", align 1
@.str.30 = private unnamed_addr constant [31 x i8] c"sub2video: using %dx%d canvas\0A\00", align 1

; Function Attrs: inlinehint nounwind uwtable
define internal ptr @cfgp_from_cfg(ptr noundef %0) #2 {
  %2 = alloca ptr, align 8
  store ptr %0, ptr %2, align 8, !tbaa !20
  %3 = load ptr, ptr %2, align 8, !tbaa !20
  ret ptr %3
}

; Function Attrs: nounwind uwtable
define i32 @filtergraph_is_simple(ptr noundef %0) #0 {
  %2 = alloca ptr, align 8
  %3 = alloca ptr, align 8
  store ptr %0, ptr %2, align 8, !tbaa !20
  call void @llvm.lifetime.start.p0(i64 8, ptr %3) #14
  %4 = load ptr, ptr %2, align 8, !tbaa !20
  %5 = call ptr @cfgp_from_cfg(ptr noundef %4)
  store ptr %5, ptr %3, align 8, !tbaa !21
  %6 = load ptr, ptr %3, align 8, !tbaa !21
  %7 = getelementptr inbounds nuw %struct.FilterGraphPriv, ptr %6, i32 0, i32 2
  %8 = load i32, ptr %7, align 8, !tbaa !58
  call void @llvm.lifetime.end.p0(i64 8, ptr %3) #14
  ret i32 %8
}

; Function Attrs: inlinehint nounwind uwtable
define internal ptr @fgp_from_fg(ptr noundef %0) #2 {
  %2 = alloca ptr, align 8
  store ptr %0, ptr %2, align 8, !tbaa !20
  %3 = load ptr, ptr %2, align 8, !tbaa !20
  ret ptr %3
}

; Function Attrs: inlinehint nounwind uwtable
define internal ptr @ifp_from_ifilter(ptr noundef %0) #2 {
  %2 = alloca ptr, align 8
  store ptr %0, ptr %2, align 8, !tbaa !114
  %3 = load ptr, ptr %2, align 8, !tbaa !114
  ret ptr %3
}

; Function Attrs: nounwind uwtable
define internal i32 @ifilter_bind_ist(ptr noundef %0, ptr noundef %1, ptr noundef %2) #0 {
  %4 = alloca i32, align 4
  %5 = alloca ptr, align 8
  %6 = alloca ptr, align 8
  %7 = alloca ptr, align 8
  %8 = alloca ptr, align 8
  %9 = alloca ptr, align 8
  %10 = alloca %struct.SchedulerNode, align 4
  %11 = alloca i32, align 4
  %12 = alloca i32, align 4
  %13 = alloca %struct.SchedulerNode, align 4
  %14 = alloca { i64, i32 }, align 4
  %15 = alloca { i64, i32 }, align 4
  %16 = alloca %struct.AVRational, align 4
  store ptr %0, ptr %5, align 8, !tbaa !114
  store ptr %1, ptr %6, align 8, !tbaa !221
  store ptr %2, ptr %7, align 8, !tbaa !234
  call void @llvm.lifetime.start.p0(i64 8, ptr %8) #14
  %17 = load ptr, ptr %5, align 8, !tbaa !114
  %18 = call ptr @ifp_from_ifilter(ptr noundef %17)
  store ptr %18, ptr %8, align 8, !tbaa !116
  call void @llvm.lifetime.start.p0(i64 8, ptr %9) #14
  %19 = load ptr, ptr %5, align 8, !tbaa !114
  %20 = getelementptr inbounds nuw %struct.InputFilter, ptr %19, i32 0, i32 0
  %21 = load ptr, ptr %20, align 8, !tbaa !185
  %22 = call ptr @fgp_from_fg(ptr noundef %21)
  store ptr %22, ptr %9, align 8, !tbaa !21
  call void @llvm.lifetime.start.p0(i64 12, ptr %10) #14
  call void @llvm.lifetime.start.p0(i64 4, ptr %11) #14
  br label %23

23:                                               ; preds = %3
  %24 = load ptr, ptr %8, align 8, !tbaa !116
  %25 = getelementptr inbounds nuw %struct.InputFilterPriv, ptr %24, i32 0, i32 9
  %26 = load i32, ptr %25, align 4, !tbaa !235
  %27 = icmp ne i32 %26, 0
  br i1 %27, label %28, label %29

28:                                               ; preds = %23
  call void (ptr, i32, ptr, ...) @av_log(ptr noundef null, i32 noundef 0, ptr noundef @.str, ptr noundef @.str.28, ptr noundef @.str.2, i32 noundef 499)
  call void @abort() #15
  unreachable

29:                                               ; preds = %23
  br label %30

30:                                               ; preds = %29
  br label %31

31:                                               ; preds = %30
  %32 = load ptr, ptr %8, align 8, !tbaa !116
  %33 = getelementptr inbounds nuw %struct.InputFilterPriv, ptr %32, i32 0, i32 9
  store i32 1, ptr %33, align 4, !tbaa !235
  %34 = load ptr, ptr %8, align 8, !tbaa !116
  %35 = getelementptr inbounds nuw %struct.InputFilterPriv, ptr %34, i32 0, i32 6
  %36 = load i32, ptr %35, align 8, !tbaa !169
  %37 = load ptr, ptr %6, align 8, !tbaa !221
  %38 = getelementptr inbounds nuw %struct.InputStream, ptr %37, i32 0, i32 5
  %39 = load ptr, ptr %38, align 8, !tbaa !223
  %40 = getelementptr inbounds nuw %struct.AVCodecParameters, ptr %39, i32 0, i32 0
  %41 = load i32, ptr %40, align 8, !tbaa !229
  %42 = icmp ne i32 %36, %41
  br i1 %42, label %43, label %67

43:                                               ; preds = %31
  %44 = load ptr, ptr %8, align 8, !tbaa !116
  %45 = getelementptr inbounds nuw %struct.InputFilterPriv, ptr %44, i32 0, i32 6
  %46 = load i32, ptr %45, align 8, !tbaa !169
  %47 = icmp eq i32 %46, 0
  br i1 %47, label %48, label %55

48:                                               ; preds = %43
  %49 = load ptr, ptr %6, align 8, !tbaa !221
  %50 = getelementptr inbounds nuw %struct.InputStream, ptr %49, i32 0, i32 5
  %51 = load ptr, ptr %50, align 8, !tbaa !223
  %52 = getelementptr inbounds nuw %struct.AVCodecParameters, ptr %51, i32 0, i32 0
  %53 = load i32, ptr %52, align 8, !tbaa !229
  %54 = icmp eq i32 %53, 3
  br i1 %54, label %67, label %55

55:                                               ; preds = %48, %43
  %56 = load ptr, ptr %9, align 8, !tbaa !21
  %57 = load ptr, ptr %6, align 8, !tbaa !221
  %58 = getelementptr inbounds nuw %struct.InputStream, ptr %57, i32 0, i32 5
  %59 = load ptr, ptr %58, align 8, !tbaa !223
  %60 = getelementptr inbounds nuw %struct.AVCodecParameters, ptr %59, i32 0, i32 0
  %61 = load i32, ptr %60, align 8, !tbaa !229
  %62 = call ptr @av_get_media_type_string(i32 noundef %61)
  %63 = load ptr, ptr %8, align 8, !tbaa !116
  %64 = getelementptr inbounds nuw %struct.InputFilterPriv, ptr %63, i32 0, i32 6
  %65 = load i32, ptr %64, align 8, !tbaa !169
  %66 = call ptr @av_get_media_type_string(i32 noundef %65)
  call void (ptr, i32, ptr, ...) @av_log(ptr noundef %56, i32 noundef 16, ptr noundef @.str.29, ptr noundef %62, ptr noundef %66)
  store i32 -22, ptr %4, align 4
  store i32 1, ptr %12, align 4
  br label %171

67:                                               ; preds = %48, %31
  %68 = load ptr, ptr %6, align 8, !tbaa !221
  %69 = getelementptr inbounds nuw %struct.InputStream, ptr %68, i32 0, i32 3
  %70 = load ptr, ptr %69, align 8, !tbaa !236
  %71 = getelementptr inbounds nuw %struct.AVStream, ptr %70, i32 0, i32 3
  %72 = load ptr, ptr %71, align 8, !tbaa !237
  %73 = getelementptr inbounds nuw %struct.AVCodecParameters, ptr %72, i32 0, i32 0
  %74 = load i32, ptr %73, align 8, !tbaa !229
  %75 = load ptr, ptr %8, align 8, !tbaa !116
  %76 = getelementptr inbounds nuw %struct.InputFilterPriv, ptr %75, i32 0, i32 7
  store i32 %74, ptr %76, align 4, !tbaa !215
  %77 = call ptr @av_frame_alloc()
  %78 = load ptr, ptr %8, align 8, !tbaa !116
  %79 = getelementptr inbounds nuw %struct.InputFilterPriv, ptr %78, i32 0, i32 1
  %80 = getelementptr inbounds nuw %struct.InputFilterOptions, ptr %79, i32 0, i32 11
  store ptr %77, ptr %80, align 8, !tbaa !240
  %81 = load ptr, ptr %8, align 8, !tbaa !116
  %82 = getelementptr inbounds nuw %struct.InputFilterPriv, ptr %81, i32 0, i32 1
  %83 = getelementptr inbounds nuw %struct.InputFilterOptions, ptr %82, i32 0, i32 11
  %84 = load ptr, ptr %83, align 8, !tbaa !240
  %85 = icmp ne ptr %84, null
  br i1 %85, label %87, label %86

86:                                               ; preds = %67
  store i32 -12, ptr %4, align 4
  store i32 1, ptr %12, align 4
  br label %171

87:                                               ; preds = %67
  %88 = load ptr, ptr %6, align 8, !tbaa !221
  %89 = load ptr, ptr %5, align 8, !tbaa !114
  %90 = load ptr, ptr %5, align 8, !tbaa !114
  %91 = getelementptr inbounds nuw %struct.InputFilter, ptr %90, i32 0, i32 0
  %92 = load ptr, ptr %91, align 8, !tbaa !185
  %93 = call i32 @filtergraph_is_simple(ptr noundef %92)
  %94 = load ptr, ptr %7, align 8, !tbaa !234
  %95 = load ptr, ptr %8, align 8, !tbaa !116
  %96 = getelementptr inbounds nuw %struct.InputFilterPriv, ptr %95, i32 0, i32 1
  %97 = call i32 @ist_filter_add(ptr noundef %88, ptr noundef %89, i32 noundef %93, ptr noundef %94, ptr noundef %96, ptr noundef %10)
  store i32 %97, ptr %11, align 4, !tbaa !9
  %98 = load i32, ptr %11, align 4, !tbaa !9
  %99 = icmp slt i32 %98, 0
  br i1 %99, label %100, label %102

100:                                              ; preds = %87
  %101 = load i32, ptr %11, align 4, !tbaa !9
  store i32 %101, ptr %4, align 4
  store i32 1, ptr %12, align 4
  br label %171

102:                                              ; preds = %87
  %103 = load ptr, ptr %9, align 8, !tbaa !21
  %104 = getelementptr inbounds nuw %struct.FilterGraphPriv, ptr %103, i32 0, i32 11
  %105 = load ptr, ptr %104, align 8, !tbaa !98
  %106 = getelementptr inbounds nuw %struct.SchedulerNode, ptr %13, i32 0, i32 0
  store i32 5, ptr %106, align 4, !tbaa !99
  %107 = getelementptr inbounds nuw %struct.SchedulerNode, ptr %13, i32 0, i32 1
  %108 = load ptr, ptr %9, align 8, !tbaa !21
  %109 = getelementptr inbounds nuw %struct.FilterGraphPriv, ptr %108, i32 0, i32 12
  %110 = load i32, ptr %109, align 8, !tbaa !101
  store i32 %110, ptr %107, align 4, !tbaa !102
  %111 = getelementptr inbounds nuw %struct.SchedulerNode, ptr %13, i32 0, i32 2
  %112 = load ptr, ptr %8, align 8, !tbaa !116
  %113 = getelementptr inbounds nuw %struct.InputFilterPriv, ptr %112, i32 0, i32 2
  %114 = load i32, ptr %113, align 8, !tbaa !187
  store i32 %114, ptr %111, align 4, !tbaa !104
  call void @llvm.memcpy.p0.p0.i64(ptr align 4 %14, ptr align 4 %10, i64 12, i1 false)
  %115 = getelementptr inbounds nuw { i64, i32 }, ptr %14, i32 0, i32 0
  %116 = load i64, ptr %115, align 4
  %117 = getelementptr inbounds nuw { i64, i32 }, ptr %14, i32 0, i32 1
  %118 = load i32, ptr %117, align 4
  call void @llvm.memcpy.p0.p0.i64(ptr align 4 %15, ptr align 4 %13, i64 12, i1 false)
  %119 = getelementptr inbounds nuw { i64, i32 }, ptr %15, i32 0, i32 0
  %120 = load i64, ptr %119, align 4
  %121 = getelementptr inbounds nuw { i64, i32 }, ptr %15, i32 0, i32 1
  %122 = load i32, ptr %121, align 4
  %123 = call i32 @sch_connect(ptr noundef %105, i64 %116, i32 %118, i64 %120, i32 %122)
  store i32 %123, ptr %11, align 4, !tbaa !9
  %124 = load i32, ptr %11, align 4, !tbaa !9
  %125 = icmp slt i32 %124, 0
  br i1 %125, label %126, label %128

126:                                              ; preds = %102
  %127 = load i32, ptr %11, align 4, !tbaa !9
  store i32 %127, ptr %4, align 4
  store i32 1, ptr %12, align 4
  br label %171

128:                                              ; preds = %102
  %129 = load ptr, ptr %8, align 8, !tbaa !116
  %130 = getelementptr inbounds nuw %struct.InputFilterPriv, ptr %129, i32 0, i32 7
  %131 = load i32, ptr %130, align 4, !tbaa !215
  %132 = icmp eq i32 %131, 3
  br i1 %132, label %133, label %170

133:                                              ; preds = %128
  %134 = call ptr @av_frame_alloc()
  %135 = load ptr, ptr %8, align 8, !tbaa !116
  %136 = getelementptr inbounds nuw %struct.InputFilterPriv, ptr %135, i32 0, i32 30
  %137 = getelementptr inbounds nuw %struct.anon, ptr %136, i32 0, i32 0
  store ptr %134, ptr %137, align 8, !tbaa !241
  %138 = load ptr, ptr %8, align 8, !tbaa !116
  %139 = getelementptr inbounds nuw %struct.InputFilterPriv, ptr %138, i32 0, i32 30
  %140 = getelementptr inbounds nuw %struct.anon, ptr %139, i32 0, i32 0
  %141 = load ptr, ptr %140, align 8, !tbaa !241
  %142 = icmp ne ptr %141, null
  br i1 %142, label %144, label %143

143:                                              ; preds = %133
  store i32 -12, ptr %4, align 4
  store i32 1, ptr %12, align 4
  br label %171

144:                                              ; preds = %133
  %145 = load ptr, ptr %8, align 8, !tbaa !116
  %146 = getelementptr inbounds nuw %struct.InputFilterPriv, ptr %145, i32 0, i32 1
  %147 = getelementptr inbounds nuw %struct.InputFilterOptions, ptr %146, i32 0, i32 8
  %148 = load i32, ptr %147, align 8, !tbaa !242
  %149 = load ptr, ptr %8, align 8, !tbaa !116
  %150 = getelementptr inbounds nuw %struct.InputFilterPriv, ptr %149, i32 0, i32 13
  store i32 %148, ptr %150, align 4, !tbaa !243
  %151 = load ptr, ptr %8, align 8, !tbaa !116
  %152 = getelementptr inbounds nuw %struct.InputFilterPriv, ptr %151, i32 0, i32 1
  %153 = getelementptr inbounds nuw %struct.InputFilterOptions, ptr %152, i32 0, i32 9
  %154 = load i32, ptr %153, align 4, !tbaa !244
  %155 = load ptr, ptr %8, align 8, !tbaa !116
  %156 = getelementptr inbounds nuw %struct.InputFilterPriv, ptr %155, i32 0, i32 14
  store i32 %154, ptr %156, align 8, !tbaa !245
  %157 = load ptr, ptr %8, align 8, !tbaa !116
  %158 = getelementptr inbounds nuw %struct.InputFilterPriv, ptr %157, i32 0, i32 12
  store i32 28, ptr %158, align 8, !tbaa !188
  %159 = load ptr, ptr %8, align 8, !tbaa !116
  %160 = getelementptr inbounds nuw %struct.InputFilterPriv, ptr %159, i32 0, i32 20
  %161 = getelementptr inbounds nuw %struct.AVRational, ptr %16, i32 0, i32 0
  store i32 1, ptr %161, align 4, !tbaa !246
  %162 = getelementptr inbounds nuw %struct.AVRational, ptr %16, i32 0, i32 1
  store i32 1000000, ptr %162, align 4, !tbaa !247
  call void @llvm.memcpy.p0.p0.i64(ptr align 8 %160, ptr align 4 %16, i64 8, i1 false), !tbaa.struct !49
  %163 = load ptr, ptr %9, align 8, !tbaa !21
  %164 = load ptr, ptr %8, align 8, !tbaa !116
  %165 = getelementptr inbounds nuw %struct.InputFilterPriv, ptr %164, i32 0, i32 13
  %166 = load i32, ptr %165, align 4, !tbaa !243
  %167 = load ptr, ptr %8, align 8, !tbaa !116
  %168 = getelementptr inbounds nuw %struct.InputFilterPriv, ptr %167, i32 0, i32 14
  %169 = load i32, ptr %168, align 8, !tbaa !245
  call void (ptr, i32, ptr, ...) @av_log(ptr noundef %163, i32 noundef 40, ptr noundef @.str.30, i32 noundef %166, i32 noundef %169)
  br label %170

170:                                              ; preds = %144, %128
  store i32 0, ptr %4, align 4
  store i32 1, ptr %12, align 4
  br label %171

171:                                              ; preds = %170, %143, %126, %100, %86, %55
  call void @llvm.lifetime.end.p0(i64 4, ptr %11) #14
  call void @llvm.lifetime.end.p0(i64 12, ptr %10) #14
  call void @llvm.lifetime.end.p0(i64 8, ptr %9) #14
  call void @llvm.lifetime.end.p0(i64 8, ptr %8) #14
  %172 = load i32, ptr %4, align 4
  ret i32 %172
}