; Function Attrs: nounwind uwtable
define internal fastcc range(i32 -2147483648, 1) i32 @ifilter_bind_ist(ptr noundef %0, ptr noundef %1, ptr noundef %2) unnamed_addr #0 {
  %4 = alloca %struct.SchedulerNode, align 8
  %5 = load ptr, ptr %0, align 8, !tbaa !148
  call void @llvm.lifetime.start.p0(i64 12, ptr nonnull %4) #17
  %6 = getelementptr inbounds nuw i8, ptr %0, i64 132
  %7 = load i32, ptr %6, align 4, !tbaa !273
  %.not = icmp eq i32 %7, 0
  br i1 %.not, label %9, label %8

8:                                                ; preds = %3
  tail call void (ptr, i32, ptr, ...) @av_log(ptr noundef null, i32 noundef 0, ptr noundef nonnull @.str, ptr noundef nonnull @.str.28, ptr noundef nonnull @.str.2, i32 noundef 499) #17
  tail call void @abort() #18
  unreachable

9:                                                ; preds = %3
  store i32 1, ptr %6, align 4, !tbaa !273
  %10 = getelementptr inbounds nuw i8, ptr %0, i64 120
  %11 = load i32, ptr %10, align 8, !tbaa !160
  %12 = getelementptr inbounds nuw i8, ptr %1, i64 40
  %13 = load ptr, ptr %12, align 8, !tbaa !262
  %14 = load i32, ptr %13, align 8, !tbaa !268
  %.not49 = icmp eq i32 %11, %14
  br i1 %.not49, label %22, label %15

15:                                               ; preds = %9
  %16 = icmp eq i32 %11, 0
  %17 = icmp eq i32 %14, 3
  %or.cond = and i1 %16, %17
  br i1 %or.cond, label %22, label %18

18:                                               ; preds = %15
  %19 = tail call ptr @av_get_media_type_string(i32 noundef %14) #17
  %20 = load i32, ptr %10, align 8, !tbaa !160
  %21 = tail call ptr @av_get_media_type_string(i32 noundef %20) #17
  tail call void (ptr, i32, ptr, ...) @av_log(ptr noundef %5, i32 noundef 16, ptr noundef nonnull @.str.29, ptr noundef %19, ptr noundef %21) #17
  br label %62

22:                                               ; preds = %15, %9
  %23 = getelementptr inbounds nuw i8, ptr %1, i64 24
  %24 = load ptr, ptr %23, align 8, !tbaa !274
  %25 = getelementptr inbounds nuw i8, ptr %24, i64 16
  %26 = load ptr, ptr %25, align 8, !tbaa !275
  %27 = load i32, ptr %26, align 8, !tbaa !268
  %28 = getelementptr inbounds nuw i8, ptr %0, i64 124
  store i32 %27, ptr %28, align 4, !tbaa !224
  %29 = tail call ptr @av_frame_alloc() #17
  %30 = getelementptr inbounds nuw i8, ptr %0, i64 80
  store ptr %29, ptr %30, align 8, !tbaa !258
  %.not50 = icmp eq ptr %29, null
  br i1 %.not50, label %62, label %31

31:                                               ; preds = %22
  %32 = getelementptr inbounds nuw i8, ptr %0, i64 16
  %33 = load ptr, ptr %0, align 8, !tbaa !148
  %34 = getelementptr inbounds nuw i8, ptr %33, i64 80
  %35 = load i32, ptr %34, align 8, !tbaa !47
  %36 = call i32 @ist_filter_add(ptr noundef nonnull %1, ptr noundef nonnull %0, i32 noundef %35, ptr noundef %2, ptr noundef nonnull %32, ptr noundef nonnull %4) #17
  %37 = icmp slt i32 %36, 0
  br i1 %37, label %62, label %38

38:                                               ; preds = %31
  %39 = getelementptr inbounds nuw i8, ptr %5, i64 136
  %40 = load ptr, ptr %39, align 8, !tbaa !91
  %41 = getelementptr inbounds nuw i8, ptr %5, i64 144
  %42 = load i32, ptr %41, align 8, !tbaa !92
  %43 = getelementptr inbounds nuw i8, ptr %0, i64 88
  %44 = load i32, ptr %43, align 8, !tbaa !150
  %.sroa.03.0.copyload = load i64, ptr %4, align 8
  %.sroa.24.0..sroa_idx = getelementptr inbounds nuw i8, ptr %4, i64 8
  %.sroa.24.0.copyload = load i32, ptr %.sroa.24.0..sroa_idx, align 8
  %.sroa.26.0.insert.ext = zext i32 %42 to i64
  %.sroa.26.0.insert.shift = shl nuw i64 %.sroa.26.0.insert.ext, 32
  %.sroa.05.0.insert.insert = or disjoint i64 %.sroa.26.0.insert.shift, 5
  %45 = call i32 @sch_connect(ptr noundef %40, i64 %.sroa.03.0.copyload, i32 %.sroa.24.0.copyload, i64 %.sroa.05.0.insert.insert, i32 %44) #17
  %46 = icmp slt i32 %45, 0
  br i1 %46, label %62, label %47

47:                                               ; preds = %38
  %48 = load i32, ptr %28, align 4, !tbaa !224
  %49 = icmp eq i32 %48, 3
  br i1 %49, label %50, label %62

50:                                               ; preds = %47
  %51 = call ptr @av_frame_alloc() #17
  %52 = getelementptr inbounds nuw i8, ptr %0, i64 344
  store ptr %51, ptr %52, align 8, !tbaa !278
  %.not51 = icmp eq ptr %51, null
  br i1 %.not51, label %62, label %53

53:                                               ; preds = %50
  %54 = getelementptr inbounds nuw i8, ptr %0, i64 64
  %55 = load i32, ptr %54, align 8, !tbaa !279
  %56 = getelementptr inbounds nuw i8, ptr %0, i64 156
  store i32 %55, ptr %56, align 4, !tbaa !228
  %57 = getelementptr inbounds nuw i8, ptr %0, i64 68
  %58 = load i32, ptr %57, align 4, !tbaa !280
  %59 = getelementptr inbounds nuw i8, ptr %0, i64 160
  store i32 %58, ptr %59, align 8, !tbaa !230
  %60 = getelementptr inbounds nuw i8, ptr %0, i64 152
  store i32 28, ptr %60, align 8, !tbaa !151
  %61 = getelementptr inbounds nuw i8, ptr %0, i64 208
  store i32 1, ptr %61, align 8, !tbaa !118
  %.sroa.2.0..sroa_idx = getelementptr inbounds nuw i8, ptr %0, i64 212
  store i32 1000000, ptr %.sroa.2.0..sroa_idx, align 4, !tbaa !118
  call void (ptr, i32, ptr, ...) @av_log(ptr noundef nonnull %5, i32 noundef 40, ptr noundef nonnull @.str.30, i32 noundef %55, i32 noundef %58) #17
  br label %62

62:                                               ; preds = %47, %53, %50, %38, %31, %22, %18
  %.0 = phi i32 [ -22, %18 ], [ -12, %22 ], [ %36, %31 ], [ %45, %38 ], [ -12, %50 ], [ 0, %53 ], [ 0, %47 ]
  call void @llvm.lifetime.end.p0(i64 12, ptr nonnull %4) #17
  ret i32 %.0
}